(lp0
(lp1
F0.0
aF0.0
aa(lp2
F-74.00594129999999
aF40.7127837
aa(lp3
F-73.8713099
aF40.6056632
aa(lp4
F-73.8624893
aF40.8637435
aa(lp5
F-73.9785952
aF40.726060100000005
aa(lp6
F-74.1739057
aF40.5567951
aa(lp7
F-74.07042320000001
aF40.5967312
aa(lp8
F-73.9234619
aF40.764357399999994
aa(lp9
F-73.9215888
aF40.7796684
aa(lp10
F-73.7860276
aF40.754115000000006
aa(lp11
F-73.7852922
aF40.67558270000001
aa(lp12
F-74.0035709
aF40.602196
aa(lp13
F-74.01702790000002
aF40.703277500000006
aa(lp14
F-74.01605759999998
aF40.712217200000005
aa(lp15
F-74.0329499
aF40.6261638
aa(lp16
F-73.78014470000001
aF40.782882799999996
aa(lp17
F-73.76543670000001
aF40.758556899999995
aa(lp18
F-73.9561495
aF40.653682200000006
aa(lp19
F-73.8856912
aF40.8700999
aa(lp20
F-73.7154014
aF40.72437070000001
aa(lp21
F-73.88601
aF40.8523198
aa(lp22
F-73.9976946
aF40.6112691
aa(lp23
F-73.9976946
aF40.6112691
aa(lp24
F-74.1885825
aF40.6208143
aa(lp25
F-73.9697795
aF40.7988958
aa(lp26
F-73.98447220000001
aF40.6848689
aa(lp27
F-73.9888797
aF40.6323009
aa(lp28
F-73.9262483
aF40.5564945
aa(lp29
F-73.8154394
aF40.708949100000005
aa(lp30
F-73.9596565
aF40.578070600000004
aa(lp31
F-73.8213213
aF40.6158335
aa(lp32
F-73.87425309999999
aF40.8604899
aa(lp33
F-73.86652409999999
aF40.8506558
aa(lp34
F-73.9932872
aF40.6960105
aa(lp35
F-73.97162709999999
aF40.7051744
aa(lp36
F-73.90952790000001
aF40.66308
aa(lp37
F-73.9212858
aF40.6944282
aa(lp38
F-73.9212858
aF40.6944282
aa(lp39
F-73.7330753
aF40.692158
aa(lp40
F-73.90605790000001
aF40.6402325
aa(lp41
F-73.9991637
aF40.6795331
aa(lp42
F-73.92169709999999
aF40.7934744
aa(lp43
F-73.92169709999999
aF40.7934744
aa(lp44
F-73.9741874
aF40.7711329
aa(lp45
F-74.2355404
aF40.5281967
aa(lp46
F-73.9970307
aF40.715750899999996
aa(lp47
F-73.7874983
aF40.8468202
aa(lp48
F-73.9036487
aF40.840047
aa(lp49
F-73.9918181
aF40.763758100000004
aa(lp50
F-73.9639021
aF40.6893665
aa(lp51
F-73.9918181
aF40.763758100000004
aa(lp52
F-73.8281865
aF40.874969799999995
aa(lp53
F-73.9962255
aF40.686536
aa(lp54
F-73.8389657
aF40.786395
aa(lp55
F-74.0060624
aF40.678101500000004
aa(lp56
F-73.98594140000002
aF40.5749261
aa(lp57
F-73.8642613
aF40.7449859
aa(lp58
F-73.8642613
aF40.7449859
aa(lp59
F-73.8213213
aF40.8430539
aa(lp60
F-73.8925983
aF40.839113299999994
aa(lp61
F-73.8921959
aF40.836655799999996
aa(lp62
F-73.94479940000001
aF40.6681032
aa(lp63
F-73.94479940000001
aF40.6681032
aa(lp64
F-73.8801301
aF40.683611799999994
aa(lp65
F-73.7470765
aF40.768713
aa(lp66
F-73.98451800000001
aF40.6960191
aa(lp67
F-73.98814509999998
aF40.7033164
aa(lp68
F-74.01532309999999
aF40.6187181
aa(lp69
F-74.0013737
aF40.746500399999995
aa(lp70
F-73.9227554
aF40.8316761
aa(lp71
F-73.8713099
aF40.7737505
aa(lp72
F-73.9301037
aF40.643747399999995
aa(lp73
F-73.9301037
aF40.643747399999995
aa(lp74
F-73.8095574
aF40.7525589
aa(lp75
F-73.9389213
aF40.7957399
aa(lp76
F-73.9389213
aF40.7957399
aa(lp77
F-73.88307009999998
aF40.656831200000006
aa(lp78
F-73.88307009999998
aF40.656831200000006
aa(lp79
F-73.8909693
aF40.845378100000005
aa(lp80
F-73.9815337
aF40.7264773
aa(lp81
F-73.9330429
aF40.715876200000004
aa(lp82
F-73.8272029
aF40.883324
aa(lp83
F-73.8801301
aF40.737975
aa(lp84
F-73.8801301
aF40.737975
aa(lp85
F-74.15629200000001
aF40.5394463
aa(lp86
F-73.952894
aF40.649632700000005
aa(lp87
F-73.7448437
aF40.5998931
aa(lp88
F-74.01127640000001
aF40.707490899999996
aa(lp89
F-74.01127640000001
aF40.707490899999996
aa(lp90
F-73.96243270000001
aF40.6409217
aa(lp91
F-73.9896986
aF40.741060499999996
aa(lp92
F-73.9330429
aF40.6268432
aa(lp93
F-73.833079
aF40.767498700000004
aa(lp94
F-73.84484690000001
aF40.7428054
aa(lp95
F-73.89054250000001
aF40.8614658
aa(lp96
F-73.84484690000001
aF40.718106
aa(lp97
F-73.85660870000001
aF40.7000227
aa(lp98
F-73.9741874
aF40.6920638
aa(lp99
F-73.78014470000001
aF40.7335179
aa(lp100
F-74.18612399999999
aF40.577455
aa(lp101
F-73.99163420000001
aF40.754707200000006
aa(lp102
F-73.7118223
aF40.747150399999995
aa(lp103
F-73.8804427
aF40.698994
aa(lp104
F-74.01679200000001
aF40.6894501
aa(lp105
F-74.0395587
aF40.6994748
aa(lp106
F-74.0450675
aF40.6900495
aa(lp107
F-73.9903489
aF40.6733364
aa(lp108
F-73.9860914
aF40.73761210000001
aa(lp109
F-73.977126
aF40.5910166
aa(lp110
F-74.15629200000001
aF40.5543273
aa(lp111
F-74.1269322
aF40.5502073
aa(lp112
F-73.995692
aF40.659017
aa(lp113
F-73.9418603
aF40.7245448
aa(lp114
F-74.0027418
aF40.7335719
aa(lp115
F-74.0027418
aF40.7335719
aa(lp116
F-74.09169440000001
aF40.6146432
aa(lp117
F-73.9496079
aF40.8259597
aa(lp118
F-73.8080869
aF40.5879465
aa(lp119
F-74.1680347
aF40.58076629999999
aa(lp120
F-73.92716440000001
aF40.8384699
aa(lp121
F-73.93324270000001
aF40.8433959
aa(lp122
F-73.7977928
aF40.721237200000004
aa(lp123
F-73.762495
aF40.7112203
aa(lp124
F-73.958372
aF40.5942226
aa(lp125
F-73.84299890000001
aF40.6571222
aa(lp126
F-74.00747309999998
aF40.726583399999996
aa(lp127
F-73.8801301
aF40.8120246
aa(lp128
F-73.92120190000001
aF40.867714500000005
aa(lp129
F-73.9256948
aF40.8715417
aa(lp130
F-73.88307009999998
aF40.7556818
aa(lp131
F-73.7889689
aF40.702677
aa(lp132
F-73.77426159999999
aF40.7178539
aa(lp133
F-73.77813909999999
aF40.6413111
aa(lp134
F-73.9741874
aF40.6376415
aa(lp135
F-73.8272029
aF40.705695
aa(lp136
F-73.81068540000001
aF40.73849860000001
aa(lp137
F-73.9027286
aF40.87399979999999
aa(lp138
F-73.9800645
aF40.7423292
aa(lp139
F-73.87396590000002
aF40.7769271
aa(lp140
F-73.7448437
aF40.674086100000004
aa(lp141
F-73.967557
aF40.767591499999995
aa(lp142
F-73.967557
aF40.767591499999995
aa(lp143
F-73.98447220000001
aF40.773828
aa(lp144
F-73.98447220000001
aF40.773828
aa(lp145
F-73.9973273
aF40.7191413
aa(lp146
F-73.94854240000001
aF40.744679
aa(lp147
F-73.94854240000001
aF40.744679
aa(lp148
F-73.8915875
aF40.8248438
aa(lp149
F-73.98427240000001
aF40.715033
aa(lp150
F-73.9492079
aF40.6056249
aa(lp151
F-73.9389213
aF40.578158
aa(lp152
F-73.95868490000001
aF40.802479
aa(lp153
F-73.9558333
aF40.816944299999996
aa(lp154
F-73.9102628
aF40.8761173
aa(lp155
F-73.9330429
aF40.611991100000004
aa(lp156
F-73.9330429
aF40.611991100000004
aa(lp157
F-74.15629200000001
aF40.6336287
aa(lp158
F-73.9065883
aF40.7294018
aa(lp159
F-74.0076108
aF40.7409865
aa(lp160
F-73.9168766
aF40.820971899999996
aa(lp161
F-73.87425
aF40.717372
aa(lp162
F-73.9784137
aF40.75536760000001
aa(lp163
F-73.9668408
aF40.7540369
aa(lp164
F-73.98401949999999
aF40.7549309
aa(lp165
F-73.98401949999999
aF40.7549309
aa(lp166
F-73.9653715
aF40.619062899999996
aa(lp167
F-73.96243270000001
aF40.8089564
aa(lp168
F-73.91099770000001
aF40.825066299999996
aa(lp169
F-73.9228881
aF40.809106799999995
aa(lp170
F-73.9051185
aF40.8488863
aa(lp171
F-73.9756567
aF40.7478792
aa(lp172
F-73.8036752
aF40.7665245
aa(lp173
F-74.115187
aF40.5733493
aa(lp174
F-73.8624893
aF40.7502698
aa(lp175
F-73.87866009999999
aF40.8771463
aa(lp176
F-73.758241
aF40.7408584
aa(lp177
F-74.115187
aF40.558475099999995
aa(lp178
F-73.96865340000001
aF40.61309620000001
aa(lp179
F-73.9736312
aF40.6424282
aa(lp180
F-73.8927255
aF40.733124100000005
aa(lp181
F-73.85072790000001
aF40.67940720000001
aa(lp182
F-73.9805817
aF40.6681038
aa(lp183
F-73.85660870000001
aF40.83825220000001
aa(lp184
F-73.8330844
aF40.8496714
aa(lp185
F-73.7972
aF40.8615
aa(lp186
F-73.8639594
aF40.8553279
aa(lp187
F-73.99351899999999
aF40.750568
aa(lp188
F-74.12546409999999
aF40.6354914
aa(lp189
F-73.9506774
aF40.6590448
aa(lp190
F-73.9668408
aF40.6774196
aa(lp191
F-73.96895579999999
aF40.660203700000004
aa(lp192
F-73.7419017
aF40.7156628
aa(lp193
F-73.94035799999999
aF40.7509287
aa(lp194
F-73.9484021
aF40.7566953
aa(lp195
F-73.9212858
aF40.7932271
aa(lp196
F-74.00944709999999
aF40.677280200000006
aa(lp197
F-73.8624893
aF40.7255722
aa(lp198
F-73.8272029
aF40.6958108
aa(lp199
F-73.9018292
aF40.704398600000005
aa(lp200
F-73.88601
aF40.7931277
aa(lp201
F-73.91099770000001
aF40.89408529999999
aa(lp202
F-73.83722370000001
aF40.579786299999995
aa(lp203
F-73.9509934
aF40.7605031
aa(lp204
F-73.73895959999999
aF40.658406799999995
aa(lp205
F-74.20325809999999
aF40.5509808
aa(lp206
F-73.76543670000001
aF40.6894086
aa(lp207
F-74.07994690000001
aF40.6427017
aa(lp208
F-73.7948516
aF40.7282239
aa(lp209
F-73.8330844
aF40.8348809
aa(lp210
F-74.0025502
aF40.710322
aa(lp211
F-73.9536163
aF40.5975847
aa(lp212
F-74.0029883
aF40.723301
aa(lp213
F-73.8683697
aF40.8251411
aa(lp214
F-73.8683697
aF40.8251411
aa(lp215
F-74.0738631
aF40.582902399999995
aa(lp216
F-73.7919103
aF40.680859399999996
aa(lp217
F-73.81249840000001
aF40.6764003
aa(lp218
F-73.9701967
aF40.70856920000001
aa(lp219
F-73.7683784
aF40.6626441
aa(lp220
F-73.7683784
aF40.6626441
aa(lp221
F-73.91540690000001
aF40.8811637
aa(lp222
F-74.0784785
aF40.6288778
aa(lp223
F-74.0065189
aF40.7516034
aa(lp224
F-73.90374770000001
aF40.7745459
aa(lp225
F-73.97784940000001
aF40.7316903
aa(lp226
F-73.9330981
aF40.6882279
aa(lp227
F-73.9196324
aF40.74327589999999
aa(lp228
F-74.01238509999999
aF40.645532
aa(lp229
F-74.01238509999999
aF40.645532
aa(lp230
F-73.961698
aF40.757628100000005
aa(lp231
F-73.98447220000001
aF40.759011
aa(lp232
F-74.0086323
aF40.716269200000006
aa(lp233
F-73.99696
aF40.7107469
aa(lp234
F-73.9712488
aF40.783060299999995
aa(lp235
F-73.990382
aF40.735654
aa(lp236
F-73.91099770000001
aF40.8595861
aa(lp237
F-73.9565551
aF40.7735649
aa(lp238
F-73.9565551
aF40.7735649
aa(lp239
F-73.9753676
aF40.7870106
aa(lp240
F-73.9753676
aF40.7870106
aa(lp241
F-73.88595140000001
aF40.8979346
aa(lp242
F-73.89355479999999
aF40.884307
aa(lp243
F-73.8668996
aF40.8458888
aa(lp244
F-73.9393554
aF40.84170820000001
aa(lp245
F-73.9393554
aF40.84170820000001
aa(lp246
F-74.10931409999999
aF40.627029799999995
aa(lp247
F-74.0013737
aF40.746500399999995
aa(lp248
F-73.9227554
aF40.8316761
aa(lp249
F-73.8816001
aF40.8430609
aa(lp250
F-74.0035709
aF40.735781
aa(lp251
F-73.8695474
aF40.8309653
aa(lp252
F-74.1386767
aF40.616296000000006
aa(lp253
F-73.8095574
aF40.79204489999999
aa(lp254
F-73.840436
aF40.7606911
aa(lp255
F-73.85660870000001
aF40.8776859
aa(lp256
F-73.964
aF40.7194016
aa(lp257
F-73.9517335
aF40.7079936
aa(lp258
F-73.9756567
aF40.6539346
aa(lp259
F-73.85660870000001
aF40.6901366
aa(lp260
F-73.862916
aF40.895361
aa(lp261
F-73.9036487
aF40.7512123
aa(lp262
F-74.0131196
aF40.7118011
aa(lp263
F-73.9492079
aF40.7762231
aa(lp264
F-73.9492079
aF40.7762231
aa(lp265
F-74.2126853
aF40.508971200000005
aa(lp266
F-74.2126853
aF40.508971200000005
aa.